target datalayout = "e-m:e-p270:32:32-p271:32:32-p272:64:64-i64:64-i128:128-f80:128-n8:16:32:64-S128"
target triple = "x86_64-pc-linux-gnu"

%struct._packet_info = type { ptr, ptr, i32, i32, %struct.nstime_t, %struct.nstime_t, %struct.nstime_t, i8, ptr, ptr, ptr, ptr, %struct._address, %struct._address, %struct._address, %struct._address, %struct._address, %struct._address, i32, ptr, i8, [3 x i8], %struct.anon, i32, i32, i32, i32, ptr, i8, ptr, ptr, i16, i16, i32, i32, i16, i32, i32, ptr, ptr, ptr, i8, i8, i16, i16, i16, i32, i16, i16, ptr, ptr, ptr, ptr, ptr, i32, i32 }
%struct.nstime_t = type { i64, i32 }
%struct._address = type { i32, i32, ptr, ptr }
%struct.anon = type { i8, [3 x i8] }

@hf_hdfsdata_startoffset = internal global i32 0, align 4
@hf_hdfsdata_blocklen = internal global i32 0, align 4
@hf_hdfsdata_end = internal global i32 0, align 4
@hf_hdfsdata_status = internal global i32 0, align 4
@hf_hdfsdata_checksumtype = internal global i32 0, align 4
@hf_hdfsdata_chunksize = internal global i32 0, align 4
@hf_hdfsdata_rest = internal global i32 0, align 4
@hf_hdfsdata_pipelinestatus = internal global i32 0, align 4
@ett_hdfsdata = internal global i32 0, align 4
@.str.68 = private unnamed_addr constant [9 x i8] c"HDFSDATA\00", align 1
@proto_hdfsdata = internal global i32 0, align 4
@.str.71 = private unnamed_addr constant [10 x i8] c"HDFS Data\00", align 1

; Function Attrs: null_pointer_is_valid sspstrong uwtable
define internal void @dissect_read_request(ptr noundef %0, ptr noundef %1, ptr noundef %2) #0 {
  %4 = alloca ptr, align 8
  %5 = alloca ptr, align 8
  %6 = alloca ptr, align 8
  store ptr %0, ptr %4, align 8
  store ptr %1, ptr %5, align 8
  store ptr %2, ptr %6, align 8
  %7 = load ptr, ptr %5, align 8
  %8 = load i32, ptr @hf_hdfsdata_startoffset, align 4
  %9 = load ptr, ptr %4, align 8
  %10 = load ptr, ptr %6, align 8
  %11 = load i32, ptr %10, align 4
  %12 = call ptr @proto_tree_add_item(ptr noundef %7, i32 noundef %8, ptr noundef %9, i32 noundef %11, i32 noundef 8, i32 noundef 0)
  %13 = load ptr, ptr %6, align 8
  %14 = load i32, ptr %13, align 4
  %15 = add i32 %14, 8
  store i32 %15, ptr %13, align 4
  %16 = load ptr, ptr %5, align 8
  %17 = load i32, ptr @hf_hdfsdata_blocklen, align 4
  %18 = load ptr, ptr %4, align 8
  %19 = load ptr, ptr %6, align 8
  %20 = load i32, ptr %19, align 4
  %21 = call ptr @proto_tree_add_item(ptr noundef %16, i32 noundef %17, ptr noundef %18, i32 noundef %20, i32 noundef 8, i32 noundef 0)
  %22 = load ptr, ptr %6, align 8
  %23 = load i32, ptr %22, align 4
  %24 = add i32 %23, 8
  store i32 %24, ptr %22, align 4
  ret void
}

; Function Attrs: null_pointer_is_valid sspstrong uwtable
define internal i32 @dissect_hdfsdata_message(ptr noundef %0, ptr noundef %1, ptr noundef %2, ptr noundef %3) #0 {
  %5 = alloca ptr, align 8
  %6 = alloca ptr, align 8
  %7 = alloca ptr, align 8
  %8 = alloca ptr, align 8
  %9 = alloca i32, align 4
  %10 = alloca ptr, align 8
  %11 = alloca ptr, align 8
  %12 = alloca i8, align 1
  store ptr %0, ptr %5, align 8
  store ptr %1, ptr %6, align 8
  store ptr %2, ptr %7, align 8
  store ptr %3, ptr %8, align 8
  call void @llvm.lifetime.start.p0(i64 4, ptr %9) #4
  store i32 0, ptr %9, align 4
  %13 = load ptr, ptr %6, align 8
  %14 = getelementptr inbounds nuw %struct._packet_info, ptr %13, i32 0, i32 1
  %15 = load ptr, ptr %14, align 8
  call void @col_set_str(ptr noundef %15, i32 noundef 35, ptr noundef @.str.68)
  %16 = load ptr, ptr %6, align 8
  %17 = getelementptr inbounds nuw %struct._packet_info, ptr %16, i32 0, i32 1
  %18 = load ptr, ptr %17, align 8
  call void @col_set_str(ptr noundef %18, i32 noundef 25, ptr noundef @.str.71)
  %19 = load ptr, ptr %7, align 8
  %20 = icmp ne ptr %19, null
  br i1 %20, label %21, label %174

21:                                               ; preds = %4
  call void @llvm.lifetime.start.p0(i64 8, ptr %10) #4
  store ptr null, ptr %10, align 8
  call void @llvm.lifetime.start.p0(i64 8, ptr %11) #4
  store ptr null, ptr %11, align 8
  %22 = load ptr, ptr %7, align 8
  %23 = load i32, ptr @proto_hdfsdata, align 4
  %24 = load ptr, ptr %5, align 8
  %25 = load i32, ptr %9, align 4
  %26 = call ptr @proto_tree_add_item(ptr noundef %22, i32 noundef %23, ptr noundef %24, i32 noundef %25, i32 noundef -1, i32 noundef 0)
  store ptr %26, ptr %10, align 8
  %27 = load ptr, ptr %10, align 8
  %28 = load i32, ptr @ett_hdfsdata, align 4
  %29 = call ptr @proto_item_add_subtree(ptr noundef %27, i32 noundef %28)
  store ptr %29, ptr %11, align 8
  %30 = load ptr, ptr %5, align 8
  %31 = call i32 @tvb_reported_length(ptr noundef %30)
  %32 = icmp eq i32 %31, 1
  br i1 %32, label %33, label %39

33:                                               ; preds = %21
  %34 = load ptr, ptr %11, align 8
  %35 = load i32, ptr @hf_hdfsdata_pipelinestatus, align 4
  %36 = load ptr, ptr %5, align 8
  %37 = load i32, ptr %9, align 4
  %38 = call ptr @proto_tree_add_item(ptr noundef %34, i32 noundef %35, ptr noundef %36, i32 noundef %37, i32 noundef 1, i32 noundef 0)
  br label %173

39:                                               ; preds = %21
  %40 = load ptr, ptr %5, align 8
  %41 = call i32 @tvb_reported_length(ptr noundef %40)
  %42 = icmp eq i32 %41, 2
  br i1 %42, label %43, label %49

43:                                               ; preds = %39
  %44 = load ptr, ptr %11, align 8
  %45 = load i32, ptr @hf_hdfsdata_status, align 4
  %46 = load ptr, ptr %5, align 8
  %47 = load i32, ptr %9, align 4
  %48 = call ptr @proto_tree_add_item(ptr noundef %44, i32 noundef %45, ptr noundef %46, i32 noundef %47, i32 noundef 2, i32 noundef 0)
  br label %172

49:                                               ; preds = %39
  %50 = load ptr, ptr %5, align 8
  %51 = call i32 @tvb_reported_length(ptr noundef %50)
  %52 = icmp eq i32 %51, 4
  br i1 %52, label %53, label %59

53:                                               ; preds = %49
  %54 = load ptr, ptr %11, align 8
  %55 = load i32, ptr @hf_hdfsdata_end, align 4
  %56 = load ptr, ptr %5, align 8
  %57 = load i32, ptr %9, align 4
  %58 = call ptr @proto_tree_add_item(ptr noundef %54, i32 noundef %55, ptr noundef %56, i32 noundef %57, i32 noundef 4, i32 noundef 0)
  br label %171

59:                                               ; preds = %49
  %60 = load ptr, ptr %5, align 8
  %61 = call i32 @tvb_reported_length(ptr noundef %60)
  %62 = icmp uge i32 %61, 19
  br i1 %62, label %63, label %92

63:                                               ; preds = %59
  %64 = load ptr, ptr %5, align 8
  %65 = call i32 @tvb_reported_length(ptr noundef %64)
  %66 = load ptr, ptr %5, align 8
  %67 = call i32 @tvb_get_ntohl(ptr noundef %66, i32 noundef 15)
  %68 = add i32 %67, 15
  %69 = add i32 %68, 29
  %70 = sub i32 %69, 4
  %71 = icmp eq i32 %65, %70
  br i1 %71, label %72, label %92

72:                                               ; preds = %63
  %73 = load ptr, ptr %5, align 8
  %74 = load ptr, ptr %11, align 8
  %75 = load i32, ptr %9, align 4
  call void @dissect_read_response_start(ptr noundef %73, ptr noundef %74, i32 noundef %75)
  %76 = load i32, ptr %9, align 4
  %77 = add i32 %76, 15
  store i32 %77, ptr %9, align 4
  %78 = load ptr, ptr %5, align 8
  %79 = load ptr, ptr %11, align 8
  %80 = load i32, ptr %9, align 4
  call void @dissect_read_response(ptr noundef %78, ptr noundef %79, i32 noundef %80)
  %81 = load i32, ptr %9, align 4
  %82 = add i32 %81, 29
  store i32 %82, ptr %9, align 4
  %83 = load ptr, ptr %11, align 8
  %84 = load i32, ptr @hf_hdfsdata_rest, align 4
  %85 = load ptr, ptr %5, align 8
  %86 = load i32, ptr %9, align 4
  %87 = load ptr, ptr %5, align 8
  %88 = call i32 @tvb_reported_length(ptr noundef %87)
  %89 = load i32, ptr %9, align 4
  %90 = sub i32 %88, %89
  %91 = call ptr @proto_tree_add_item(ptr noundef %83, i32 noundef %84, ptr noundef %85, i32 noundef %86, i32 noundef %90, i32 noundef 0)
  br label %170

92:                                               ; preds = %63, %59
  call void @llvm.lifetime.start.p0(i64 1, ptr %12) #4
  %93 = load ptr, ptr %5, align 8
  %94 = call zeroext i8 @tvb_get_uint8(ptr noundef %93, i32 noundef 2)
  store i8 %94, ptr %12, align 1
  %95 = load ptr, ptr %5, align 8
  %96 = call i32 @tvb_reported_length(ptr noundef %95)
  %97 = icmp uge i32 %96, 36
  br i1 %97, label %98, label %112

98:                                               ; preds = %92
  %99 = load i8, ptr %12, align 1
  %100 = zext i8 %99 to i32
  %101 = icmp eq i32 %100, 81
  br i1 %101, label %102, label %112

102:                                              ; preds = %98
  %103 = load ptr, ptr %5, align 8
  %104 = load ptr, ptr %11, align 8
  %105 = call i32 @dissect_header(ptr noundef %103, ptr noundef %104, ptr noundef %9)
  %106 = load ptr, ptr %5, align 8
  %107 = load ptr, ptr %11, align 8
  call void @dissect_read_request(ptr noundef %106, ptr noundef %107, ptr noundef %9)
  %108 = load ptr, ptr %5, align 8
  %109 = load ptr, ptr %11, align 8
  call void @dissect_variable_int_string(ptr noundef %108, ptr noundef %109, ptr noundef %9)
  %110 = load ptr, ptr %5, align 8
  %111 = load ptr, ptr %11, align 8
  call void @dissect_access_tokens(ptr noundef %110, ptr noundef %111, ptr noundef %9)
  br label %169

112:                                              ; preds = %98, %92
  %113 = load ptr, ptr %5, align 8
  %114 = call i32 @tvb_reported_length(ptr noundef %113)
  %115 = icmp uge i32 %114, 35
  br i1 %115, label %116, label %144

116:                                              ; preds = %112
  %117 = load i8, ptr %12, align 1
  %118 = zext i8 %117 to i32
  %119 = icmp eq i32 %118, 80
  br i1 %119, label %120, label %144

120:                                              ; preds = %116
  %121 = load ptr, ptr %5, align 8
  %122 = load ptr, ptr %11, align 8
  %123 = call i32 @dissect_header(ptr noundef %121, ptr noundef %122, ptr noundef %9)
  %124 = load ptr, ptr %5, align 8
  %125 = load ptr, ptr %11, align 8
  call void @dissect_write_request(ptr noundef %124, ptr noundef %125, ptr noundef %9)
  %126 = load ptr, ptr %5, align 8
  %127 = load ptr, ptr %11, align 8
  call void @dissect_variable_int_string(ptr noundef %126, ptr noundef %127, ptr noundef %9)
  %128 = load ptr, ptr %5, align 8
  %129 = load ptr, ptr %11, align 8
  call void @dissect_write_request_end(ptr noundef %128, ptr noundef %129, ptr noundef %9)
  %130 = load ptr, ptr %5, align 8
  %131 = load ptr, ptr %11, align 8
  call void @dissect_access_tokens(ptr noundef %130, ptr noundef %131, ptr noundef %9)
  %132 = load ptr, ptr %11, align 8
  %133 = load i32, ptr @hf_hdfsdata_checksumtype, align 4
  %134 = load ptr, ptr %5, align 8
  %135 = load i32, ptr %9, align 4
  %136 = call ptr @proto_tree_add_item(ptr noundef %132, i32 noundef %133, ptr noundef %134, i32 noundef %135, i32 noundef 1, i32 noundef 0)
  %137 = load i32, ptr %9, align 4
  %138 = add i32 %137, 1
  store i32 %138, ptr %9, align 4
  %139 = load ptr, ptr %11, align 8
  %140 = load i32, ptr @hf_hdfsdata_chunksize, align 4
  %141 = load ptr, ptr %5, align 8
  %142 = load i32, ptr %9, align 4
  %143 = call ptr @proto_tree_add_item(ptr noundef %139, i32 noundef %140, ptr noundef %141, i32 noundef %142, i32 noundef 4, i32 noundef 0)
  br label %168

144:                                              ; preds = %116, %112
  %145 = load ptr, ptr %5, align 8
  %146 = call i32 @tvb_reported_length(ptr noundef %145)
  %147 = icmp uge i32 %146, 4
  br i1 %147, label %148, label %159

148:                                              ; preds = %144
  %149 = load ptr, ptr %5, align 8
  %150 = call i32 @tvb_get_ntohl(ptr noundef %149, i32 noundef 0)
  %151 = load ptr, ptr %5, align 8
  %152 = call i32 @tvb_reported_length(ptr noundef %151)
  %153 = sub i32 %152, 21
  %154 = icmp eq i32 %150, %153
  br i1 %154, label %155, label %159

155:                                              ; preds = %148
  %156 = load ptr, ptr %5, align 8
  %157 = load ptr, ptr %11, align 8
  %158 = load i32, ptr %9, align 4
  call void @dissect_write_response(ptr noundef %156, ptr noundef %157, i32 noundef %158)
  br label %167

159:                                              ; preds = %148, %144
  %160 = load ptr, ptr %11, align 8
  %161 = load i32, ptr @hf_hdfsdata_rest, align 4
  %162 = load ptr, ptr %5, align 8
  %163 = load i32, ptr %9, align 4
  %164 = load ptr, ptr %5, align 8
  %165 = call i32 @tvb_reported_length(ptr noundef %164)
  %166 = call ptr @proto_tree_add_item(ptr noundef %160, i32 noundef %161, ptr noundef %162, i32 noundef %163, i32 noundef %165, i32 noundef 0)
  br label %167

167:                                              ; preds = %159, %155
  br label %168

168:                                              ; preds = %167, %120
  br label %169

169:                                              ; preds = %168, %102
  call void @llvm.lifetime.end.p0(i64 1, ptr %12) #4
  br label %170

170:                                              ; preds = %169, %72
  br label %171

171:                                              ; preds = %170, %53
  br label %172

172:                                              ; preds = %171, %43
  br label %173

173:                                              ; preds = %172, %33
  call void @llvm.lifetime.end.p0(i64 8, ptr %11) #4
  call void @llvm.lifetime.end.p0(i64 8, ptr %10) #4
  br label %174

174:                                              ; preds = %173, %4
  %175 = load ptr, ptr %5, align 8
  %176 = call i32 @tvb_captured_length(ptr noundef %175)
  call void @llvm.lifetime.end.p0(i64 4, ptr %9) #4
  ret i32 %176
}