; Function Attrs: null_pointer_is_valid sspstrong uwtable
define internal i32 @dissect_hdfsdata_message(ptr noundef %0, ptr noundef readonly captures(none) %1, ptr noundef %2, ptr readnone captures(none) %3) #0 {
  %5 = alloca i32, align 4
  call void @llvm.lifetime.start.p0(i64 4, ptr nonnull %5) #3
  store i32 0, ptr %5, align 4
  %6 = getelementptr inbounds nuw i8, ptr %1, i64 8
  %7 = load ptr, ptr %6, align 8
  tail call void @col_set_str(ptr noundef %7, i32 noundef 35, ptr noundef nonnull @.str.68)
  %8 = load ptr, ptr %6, align 8
  tail call void @col_set_str(ptr noundef %8, i32 noundef 25, ptr noundef nonnull @.str.71)
  %.not = icmp eq ptr %2, null
  br i1 %.not, label %87, label %9

9:                                                ; preds = %4
  %10 = load i32, ptr @proto_hdfsdata, align 4
  %11 = tail call ptr @proto_tree_add_item(ptr noundef nonnull %2, i32 noundef %10, ptr noundef %0, i32 noundef 0, i32 noundef -1, i32 noundef 0)
  %12 = load i32, ptr @ett_hdfsdata, align 4
  %13 = tail call ptr @proto_item_add_subtree(ptr noundef %11, i32 noundef %12)
  %14 = tail call i32 @tvb_reported_length(ptr noundef %0)
  %15 = icmp eq i32 %14, 1
  br i1 %15, label %16, label %19

16:                                               ; preds = %9
  %17 = load i32, ptr @hf_hdfsdata_pipelinestatus, align 4
  %18 = tail call ptr @proto_tree_add_item(ptr noundef %13, i32 noundef %17, ptr noundef %0, i32 noundef 0, i32 noundef 1, i32 noundef 0)
  br label %87

19:                                               ; preds = %9
  %20 = tail call i32 @tvb_reported_length(ptr noundef %0)
  %21 = icmp eq i32 %20, 2
  br i1 %21, label %22, label %25

22:                                               ; preds = %19
  %23 = load i32, ptr @hf_hdfsdata_status, align 4
  %24 = tail call ptr @proto_tree_add_item(ptr noundef %13, i32 noundef %23, ptr noundef %0, i32 noundef 0, i32 noundef 2, i32 noundef 0)
  br label %87

25:                                               ; preds = %19
  %26 = tail call i32 @tvb_reported_length(ptr noundef %0)
  %27 = icmp eq i32 %26, 4
  br i1 %27, label %28, label %31

28:                                               ; preds = %25
  %29 = load i32, ptr @hf_hdfsdata_end, align 4
  %30 = tail call ptr @proto_tree_add_item(ptr noundef %13, i32 noundef %29, ptr noundef %0, i32 noundef 0, i32 noundef 4, i32 noundef 0)
  br label %87

31:                                               ; preds = %25
  %32 = tail call i32 @tvb_reported_length(ptr noundef %0)
  %33 = icmp ugt i32 %32, 18
  br i1 %33, label %34, label %44

34:                                               ; preds = %31
  %35 = tail call i32 @tvb_reported_length(ptr noundef %0)
  %36 = tail call i32 @tvb_get_ntohl(ptr noundef %0, i32 noundef 15)
  %37 = add i32 %36, 40
  %38 = icmp eq i32 %35, %37
  br i1 %38, label %39, label %44

39:                                               ; preds = %34
  tail call fastcc void @dissect_read_response_start(ptr noundef %0, ptr noundef %13, i32 noundef 0)
  tail call fastcc void @dissect_read_response(ptr noundef %0, ptr noundef %13, i32 noundef 15)
  %40 = load i32, ptr @hf_hdfsdata_rest, align 4
  %41 = tail call i32 @tvb_reported_length(ptr noundef %0)
  %42 = add i32 %41, -44
  %43 = tail call ptr @proto_tree_add_item(ptr noundef %13, i32 noundef %40, ptr noundef %0, i32 noundef 44, i32 noundef %42, i32 noundef 0)
  br label %87

44:                                               ; preds = %34, %31
  %45 = tail call zeroext i8 @tvb_get_uint8(ptr noundef %0, i32 noundef 2)
  %46 = tail call i32 @tvb_reported_length(ptr noundef %0)
  %47 = icmp ugt i32 %46, 35
  %48 = icmp eq i8 %45, 81
  %or.cond = select i1 %47, i1 %48, i1 false
  br i1 %or.cond, label %49, label %63

49:                                               ; preds = %44
  %50 = load i32, ptr @hf_hdfsdata_version, align 4
  %51 = tail call ptr @proto_tree_add_item(ptr noundef %13, i32 noundef %50, ptr noundef %0, i32 noundef 0, i32 noundef 2, i32 noundef 0)
  %52 = tail call zeroext i8 @tvb_get_uint8(ptr noundef %0, i32 noundef 2)
  %53 = load i32, ptr @hf_hdfsdata_cmd, align 4
  %54 = tail call ptr @proto_tree_add_item(ptr noundef %13, i32 noundef %53, ptr noundef %0, i32 noundef 2, i32 noundef 1, i32 noundef 0)
  %55 = load i32, ptr @hf_hdfsdata_blockid, align 4
  %56 = tail call ptr @proto_tree_add_item(ptr noundef %13, i32 noundef %55, ptr noundef %0, i32 noundef 3, i32 noundef 8, i32 noundef 0)
  %57 = load i32, ptr @hf_hdfsdata_timestamp, align 4
  %58 = tail call ptr @proto_tree_add_item(ptr noundef %13, i32 noundef %57, ptr noundef %0, i32 noundef 11, i32 noundef 8, i32 noundef 0)
  %59 = load i32, ptr @hf_hdfsdata_startoffset, align 4
  %60 = tail call ptr @proto_tree_add_item(ptr noundef %13, i32 noundef %59, ptr noundef %0, i32 noundef 19, i32 noundef 8, i32 noundef 0)
  %61 = load i32, ptr @hf_hdfsdata_blocklen, align 4
  %62 = tail call ptr @proto_tree_add_item(ptr noundef %13, i32 noundef %61, ptr noundef %0, i32 noundef 27, i32 noundef 8, i32 noundef 0)
  store i32 35, ptr %5, align 4
  call fastcc void @dissect_variable_int_string(ptr noundef %0, ptr noundef %13, ptr noundef nonnull %5)
  call fastcc void @dissect_access_tokens(ptr noundef %0, ptr noundef %13, ptr noundef nonnull %5)
  br label %87

63:                                               ; preds = %44
  %64 = tail call i32 @tvb_reported_length(ptr noundef %0)
  %65 = icmp ugt i32 %64, 34
  %66 = icmp eq i8 %45, 80
  %or.cond5 = select i1 %65, i1 %66, i1 false
  br i1 %or.cond5, label %67, label %74

67:                                               ; preds = %63
  call fastcc void @dissect_header(ptr noundef %0, ptr noundef %13, ptr noundef nonnull %5)
  call fastcc void @dissect_write_request(ptr noundef %0, ptr noundef %13, ptr noundef nonnull %5)
  call fastcc void @dissect_variable_int_string(ptr noundef %0, ptr noundef %13, ptr noundef nonnull %5)
  call fastcc void @dissect_write_request_end(ptr noundef %0, ptr noundef %13, ptr noundef nonnull %5)
  call fastcc void @dissect_access_tokens(ptr noundef %0, ptr noundef %13, ptr noundef nonnull %5)
  %68 = load i32, ptr @hf_hdfsdata_checksumtype, align 4
  %69 = load i32, ptr %5, align 4
  %70 = tail call ptr @proto_tree_add_item(ptr noundef %13, i32 noundef %68, ptr noundef %0, i32 noundef %69, i32 noundef 1, i32 noundef 0)
  %71 = add i32 %69, 1
  %72 = load i32, ptr @hf_hdfsdata_chunksize, align 4
  %73 = tail call ptr @proto_tree_add_item(ptr noundef %13, i32 noundef %72, ptr noundef %0, i32 noundef %71, i32 noundef 4, i32 noundef 0)
  br label %87

74:                                               ; preds = %63
  %75 = tail call i32 @tvb_reported_length(ptr noundef %0)
  %76 = icmp ugt i32 %75, 3
  br i1 %76, label %77, label %83

77:                                               ; preds = %74
  %78 = tail call i32 @tvb_get_ntohl(ptr noundef %0, i32 noundef 0)
  %79 = tail call i32 @tvb_reported_length(ptr noundef %0)
  %80 = add i32 %79, -21
  %81 = icmp eq i32 %78, %80
  br i1 %81, label %82, label %83

82:                                               ; preds = %77
  tail call fastcc void @dissect_write_response(ptr noundef %0, ptr noundef %13, i32 noundef 0)
  br label %87

83:                                               ; preds = %77, %74
  %84 = load i32, ptr @hf_hdfsdata_rest, align 4
  %85 = tail call i32 @tvb_reported_length(ptr noundef %0)
  %86 = tail call ptr @proto_tree_add_item(ptr noundef %13, i32 noundef %84, ptr noundef %0, i32 noundef 0, i32 noundef %85, i32 noundef 0)
  br label %87

87:                                               ; preds = %16, %28, %39, %22, %67, %83, %82, %49, %4
  %88 = tail call i32 @tvb_captured_length(ptr noundef %0)
  call void @llvm.lifetime.end.p0(i64 4, ptr nonnull %5) #3
  ret i32 %88
}